target datalayout = "e-m:e-p270:32:32-p271:32:32-p272:64:64-i64:64-i128:128-f80:128-n8:16:32:64-S128"
target triple = "x86_64-pc-linux-gnu"

%struct.SDL_AudioDriver = type { ptr, ptr, %struct.SDL_AudioDriverImpl, ptr, ptr, ptr, i32, i32, %struct.SDL_PendingAudioDeviceEvent, ptr, %struct.SDL_AtomicInt, %struct.SDL_AtomicInt, %struct.SDL_AtomicInt }
%struct.SDL_AudioDriverImpl = type { ptr, ptr, ptr, ptr, ptr, ptr, ptr, ptr, ptr, ptr, ptr, ptr, ptr, ptr, i8, i8, i8, i8 }
%struct.SDL_PendingAudioDeviceEvent = type { i32, i32, ptr }
%struct.SDL_AtomicInt = type { i32 }
%struct.FindAudioDeviceByCallbackData = type { ptr, ptr, ptr }

@current_audio = internal global %struct.SDL_AudioDriver zeroinitializer, align 8
@.str.10 = private unnamed_addr constant [35 x i8] c"Audio subsystem is not initialized\00", align 1
@.str.11 = private unnamed_addr constant [17 x i8] c"Device not found\00", align 1

; Function Attrs: nounwind uwtable
define hidden ptr @SDL_GetCurrentAudioDriver_REAL() #0 {
  %1 = load ptr, ptr @current_audio, align 8
  ret ptr %1
}

; Function Attrs: nounwind uwtable
define hidden ptr @SDL_FindPhysicalAudioDeviceByCallback(ptr noundef %0, ptr noundef %1) #0 {
  %3 = alloca ptr, align 8
  %4 = alloca ptr, align 8
  %5 = alloca ptr, align 8
  %6 = alloca %struct.FindAudioDeviceByCallbackData, align 8
  store ptr %0, ptr %4, align 8
  store ptr %1, ptr %5, align 8
  %7 = call ptr @SDL_GetCurrentAudioDriver_REAL()
  %8 = icmp ne ptr %7, null
  br i1 %8, label %11, label %9

9:                                                ; preds = %2
  %10 = call zeroext i1 (ptr, ...) @SDL_SetError_REAL(ptr noundef @.str.10)
  store ptr null, ptr %3, align 8
  br label %29

11:                                               ; preds = %2
  call void @llvm.lifetime.start.p0(i64 24, ptr %6) #6
  %12 = getelementptr inbounds nuw %struct.FindAudioDeviceByCallbackData, ptr %6, i32 0, i32 0
  %13 = load ptr, ptr %4, align 8
  store ptr %13, ptr %12, align 8
  %14 = getelementptr inbounds nuw %struct.FindAudioDeviceByCallbackData, ptr %6, i32 0, i32 1
  %15 = load ptr, ptr %5, align 8
  store ptr %15, ptr %14, align 8
  %16 = getelementptr inbounds nuw %struct.FindAudioDeviceByCallbackData, ptr %6, i32 0, i32 2
  store ptr null, ptr %16, align 8
  %17 = load ptr, ptr getelementptr inbounds nuw (%struct.SDL_AudioDriver, ptr @current_audio, i32 0, i32 3), align 8
  call void @SDL_LockRWLockForReading_REAL(ptr noundef %17)
  %18 = load ptr, ptr getelementptr inbounds nuw (%struct.SDL_AudioDriver, ptr @current_audio, i32 0, i32 4), align 8
  %19 = call zeroext i1 @SDL_IterateHashTable(ptr noundef %18, ptr noundef @FindAudioDeviceByCallback, ptr noundef %6)
  %20 = load ptr, ptr getelementptr inbounds nuw (%struct.SDL_AudioDriver, ptr @current_audio, i32 0, i32 3), align 8
  call void @SDL_UnlockRWLock_REAL(ptr noundef %20)
  %21 = getelementptr inbounds nuw %struct.FindAudioDeviceByCallbackData, ptr %6, i32 0, i32 2
  %22 = load ptr, ptr %21, align 8
  %23 = icmp ne ptr %22, null
  br i1 %23, label %26, label %24

24:                                               ; preds = %11
  %25 = call zeroext i1 (ptr, ...) @SDL_SetError_REAL(ptr noundef @.str.11)
  br label %26

26:                                               ; preds = %24, %11
  %27 = getelementptr inbounds nuw %struct.FindAudioDeviceByCallbackData, ptr %6, i32 0, i32 2
  %28 = load ptr, ptr %27, align 8
  store ptr %28, ptr %3, align 8
  call void @llvm.lifetime.end.p0(i64 24, ptr %6) #6
  br label %29

29:                                               ; preds = %26, %9
  %30 = load ptr, ptr %3, align 8
  ret ptr %30
}